; Function Attrs: mustprogress nounwind uwtable
define dso_local noundef i32 @_ZNK4llvm3pdb13NativeTypeUDT10getUdtKindEv(ptr nocapture noundef nonnull readonly align 8 dereferenceable(194) %0) unnamed_addr #0 align 2 {
  %2 = getelementptr inbounds nuw i8, ptr %0, i64 168
  %3 = load ptr, ptr %2, align 8
  %.not = icmp eq ptr %3, null
  br i1 %.not, label %9, label %4

4:                                                ; preds = %1
  %5 = load ptr, ptr %3, align 8
  %6 = getelementptr inbounds i8, ptr %5, i64 776
  %7 = load ptr, ptr %6, align 8
  %8 = tail call noundef i32 %7(ptr noundef nonnull align 8 dereferenceable(194) %3) #9
  br label %17

9:                                                ; preds = %1
  %10 = getelementptr inbounds nuw i8, ptr %0, i64 176
  %11 = load ptr, ptr %10, align 8
  %12 = load i16, ptr %11, align 8
  switch i16 %12, label %16 [
    i16 5380, label %17
    i16 5382, label %13
    i16 5381, label %14
    i16 5401, label %15
  ]

13:                                               ; preds = %9
  br label %17

14:                                               ; preds = %9
  br label %17

15:                                               ; preds = %9
  br label %17

16:                                               ; preds = %9
  unreachable

17:                                               ; preds = %9, %15, %14, %13, %4
  %.0 = phi i32 [ %8, %4 ], [ 3, %15 ], [ 0, %14 ], [ 2, %13 ], [ 1, %9 ]
  ret i32 %.0
}